target datalayout = "e-m:e-p270:32:32-p271:32:32-p272:64:64-i64:64-i128:128-f80:128-n8:16:32:64-S128"
target triple = "x86_64-pc-linux-gnu"

%"class.gmx::internal::SelectionData" = type <{ %"class.std::__cxx11::basic_string", %"class.std::__cxx11::basic_string", %struct.gmx_ana_pos_t, %"class.std::vector", %"class.std::vector", %"class.gmx::FlagsTemplate", ptr, i32, float, float, i8, i8, [2 x i8] }>
%"class.std::__cxx11::basic_string" = type { %"struct.std::__cxx11::basic_string<char>::_Alloc_hider", i64, %union.anon }
%"struct.std::__cxx11::basic_string<char>::_Alloc_hider" = type { ptr }
%union.anon = type { i64, [8 x i8] }
%struct.gmx_ana_pos_t = type <{ ptr, ptr, ptr, %struct.gmx_ana_indexmap_t, i32, [4 x i8] }>
%struct.gmx_ana_indexmap_t = type { i32, ptr, ptr, %struct.t_blocka, ptr, %struct.t_blocka, i8 }
%struct.t_blocka = type { i32, ptr, i32, ptr, i32, i32 }
%"class.std::vector" = type { %"struct.std::_Vector_base" }
%"struct.std::_Vector_base" = type { %"struct.std::_Vector_base<float, std::allocator<float>>::_Vector_impl" }
%"struct.std::_Vector_base<float, std::allocator<float>>::_Vector_impl" = type { %"struct.std::_Vector_base<float, std::allocator<float>>::_Vector_impl_data" }
%"struct.std::_Vector_base<float, std::allocator<float>>::_Vector_impl_data" = type { ptr, ptr, ptr }
%"class.gmx::FlagsTemplate" = type { i64 }

; Function Attrs: mustprogress nounwind uwtable
define linkonce_odr noundef nonnull align 8 dereferenceable(168) ptr @_ZN3gmx8internal13SelectionData11rootElementEv(ptr noundef nonnull align 8 dereferenceable(294) %0) #1 comdat align 2 {
  %2 = alloca ptr, align 8
  store ptr %0, ptr %2, align 8
  %3 = load ptr, ptr %2, align 8
  %4 = getelementptr inbounds %"class.gmx::internal::SelectionData", ptr %3, i32 0, i32 6
  %5 = load ptr, ptr %4, align 8
  ret ptr %5
}

; Function Attrs: mustprogress nounwind uwtable
define linkonce_odr noundef zeroext i1 @_ZNK3gmx8internal13SelectionData24isCoveredFractionDynamicEv(ptr noundef nonnull align 8 dereferenceable(294) %0) #1 comdat align 2 {
  %2 = alloca ptr, align 8
  store ptr %0, ptr %2, align 8
  %3 = load ptr, ptr %2, align 8
  %4 = getelementptr inbounds %"class.gmx::internal::SelectionData", ptr %3, i32 0, i32 11
  %5 = load i8, ptr %4, align 1
  %6 = trunc i8 %5 to i1
  ret i1 %6
}

; Function Attrs: mustprogress uwtable
define void @_ZN3gmx8internal13SelectionData29updateCoveredFractionForFrameEv(ptr noundef nonnull align 8 dereferenceable(294) %0) #0 align 2 {
  %2 = alloca ptr, align 8
  %3 = alloca float, align 4
  store ptr %0, ptr %2, align 8
  %4 = load ptr, ptr %2, align 8
  %5 = call noundef zeroext i1 @_ZNK3gmx8internal13SelectionData24isCoveredFractionDynamicEv(ptr noundef nonnull align 8 dereferenceable(294) %4)
  br i1 %5, label %6, label %15

6:                                                ; preds = %1
  %7 = call noundef nonnull align 8 dereferenceable(168) ptr @_ZN3gmx8internal13SelectionData11rootElementEv(ptr noundef nonnull align 8 dereferenceable(294) %4)
  %8 = call noundef float @_Z31_gmx_selelem_estimate_coverfracRKN3gmx20SelectionTreeElementE(ptr noundef nonnull align 8 dereferenceable(168) %7)
  store float %8, ptr %3, align 4
  %9 = load float, ptr %3, align 4
  %10 = getelementptr inbounds %"class.gmx::internal::SelectionData", ptr %4, i32 0, i32 8
  store float %9, ptr %10, align 4
  %11 = load float, ptr %3, align 4
  %12 = getelementptr inbounds %"class.gmx::internal::SelectionData", ptr %4, i32 0, i32 9
  %13 = load float, ptr %12, align 8
  %14 = fadd float %13, %11
  store float %14, ptr %12, align 8
  br label %15

15:                                               ; preds = %6, %1
  ret void
}