; Function Attrs: mustprogress uwtable
define void @_ZN3gmx8internal13SelectionData29updateCoveredFractionForFrameEv(ptr nocapture noundef nonnull align 8 dereferenceable(294) %0) local_unnamed_addr #0 align 2 {
  %2 = getelementptr inbounds i8, ptr %0, i64 293
  %3 = load i8, ptr %2, align 1
  %4 = trunc i8 %3 to i1
  br i1 %4, label %5, label %13

5:                                                ; preds = %1
  %6 = getelementptr inbounds i8, ptr %0, i64 272
  %7 = load ptr, ptr %6, align 8
  %8 = tail call noundef float @_Z31_gmx_selelem_estimate_coverfracRKN3gmx20SelectionTreeElementE(ptr noundef nonnull align 8 dereferenceable(168) %7)
  %9 = getelementptr inbounds i8, ptr %0, i64 284
  store float %8, ptr %9, align 4
  %10 = getelementptr inbounds i8, ptr %0, i64 288
  %11 = load float, ptr %10, align 8
  %12 = fadd float %8, %11
  store float %12, ptr %10, align 8
  br label %13

13:                                               ; preds = %5, %1
  ret void
}